target datalayout = "e-m:e-p270:32:32-p271:32:32-p272:64:64-i64:64-i128:128-f80:128-n8:16:32:64-S128"
target triple = "x86_64-pc-linux-gnu"

; Function Attrs: inlinehint nounwind uwtable
define internal i64 @hwloc_move_pages(i32 noundef %0, i64 noundef %1, ptr noundef %2, ptr noundef %3, ptr noundef %4, i32 noundef %5) #1 {
  %7 = alloca i32, align 4
  %8 = alloca i64, align 8
  %9 = alloca ptr, align 8
  %10 = alloca ptr, align 8
  %11 = alloca ptr, align 8
  %12 = alloca i32, align 4
  store i32 %0, ptr %7, align 4, !tbaa !10
  store i64 %1, ptr %8, align 8, !tbaa !12
  store ptr %2, ptr %9, align 8, !tbaa !21
  store ptr %3, ptr %10, align 8, !tbaa !91
  store ptr %4, ptr %11, align 8, !tbaa !91
  store i32 %5, ptr %12, align 4, !tbaa !10
  %13 = load i32, ptr %7, align 4, !tbaa !10
  %14 = load i64, ptr %8, align 8, !tbaa !12
  %15 = load ptr, ptr %9, align 8, !tbaa !21
  %16 = load ptr, ptr %10, align 8, !tbaa !91
  %17 = load ptr, ptr %11, align 8, !tbaa !91
  %18 = load i32, ptr %12, align 4, !tbaa !10
  %19 = call i64 (i64, ...) @syscall(i64 noundef 279, i32 noundef %13, i64 noundef %14, ptr noundef %15, ptr noundef %16, ptr noundef %17, i32 noundef %18) #14
  ret i64 %19
}

; Function Attrs: nounwind uwtable
define internal i32 @hwloc_linux_get_area_memlocation(ptr noundef %0, ptr noundef %1, i64 noundef %2, ptr noundef %3, i32 noundef %4) #0 {
  %6 = alloca ptr, align 8
  %7 = alloca ptr, align 8
  %8 = alloca i64, align 8
  %9 = alloca ptr, align 8
  %10 = alloca i32, align 4
  %11 = alloca i32, align 4
  %12 = alloca i64, align 8
  %13 = alloca ptr, align 8
  %14 = alloca ptr, align 8
  %15 = alloca i32, align 4
  %16 = alloca i32, align 4
  %17 = alloca i32, align 4
  store ptr %0, ptr %6, align 8, !tbaa !19
  store ptr %1, ptr %7, align 8, !tbaa !21
  store i64 %2, ptr %8, align 8, !tbaa !12
  store ptr %3, ptr %9, align 8, !tbaa !8
  store i32 %4, ptr %10, align 4, !tbaa !10
  call void @llvm.lifetime.start.p0(i64 4, ptr %11) #14
  call void @llvm.lifetime.start.p0(i64 8, ptr %12) #14
  call void @llvm.lifetime.start.p0(i64 8, ptr %13) #14
  call void @llvm.lifetime.start.p0(i64 8, ptr %14) #14
  call void @llvm.lifetime.start.p0(i64 4, ptr %15) #14
  %18 = call i64 @sysconf(i32 noundef 30) #14
  %19 = trunc i64 %18 to i32
  store i32 %19, ptr %15, align 4, !tbaa !10
  call void @llvm.lifetime.start.p0(i64 4, ptr %16) #14
  call void @llvm.lifetime.start.p0(i64 4, ptr %17) #14
  %20 = load ptr, ptr %7, align 8, !tbaa !21
  %21 = ptrtoint ptr %20 to i64
  %22 = load i32, ptr %15, align 4, !tbaa !10
  %23 = sub nsw i32 %22, 1
  %24 = sext i32 %23 to i64
  %25 = and i64 %21, %24
  %26 = trunc i64 %25 to i32
  store i32 %26, ptr %11, align 4, !tbaa !10
  %27 = load ptr, ptr %7, align 8, !tbaa !21
  %28 = load i32, ptr %11, align 4, !tbaa !10
  %29 = zext i32 %28 to i64
  %30 = sub i64 0, %29
  %31 = getelementptr inbounds i8, ptr %27, i64 %30
  store ptr %31, ptr %7, align 8, !tbaa !21
  %32 = load i32, ptr %11, align 4, !tbaa !10
  %33 = zext i32 %32 to i64
  %34 = load i64, ptr %8, align 8, !tbaa !12
  %35 = add i64 %34, %33
  store i64 %35, ptr %8, align 8, !tbaa !12
  %36 = load i64, ptr %8, align 8, !tbaa !12
  %37 = load i32, ptr %15, align 4, !tbaa !10
  %38 = sext i32 %37 to i64
  %39 = add i64 %36, %38
  %40 = sub i64 %39, 1
  %41 = load i32, ptr %15, align 4, !tbaa !10
  %42 = sext i32 %41 to i64
  %43 = udiv i64 %40, %42
  store i64 %43, ptr %12, align 8, !tbaa !12
  %44 = load i64, ptr %12, align 8, !tbaa !12
  %45 = mul i64 %44, 8
  %46 = call noalias ptr @malloc(i64 noundef %45) #15
  store ptr %46, ptr %13, align 8, !tbaa !21
  %47 = load i64, ptr %12, align 8, !tbaa !12
  %48 = mul i64 %47, 4
  %49 = call noalias ptr @malloc(i64 noundef %48) #15
  store ptr %49, ptr %14, align 8, !tbaa !91
  %50 = load ptr, ptr %13, align 8, !tbaa !21
  %51 = icmp ne ptr %50, null
  br i1 %51, label %52, label %55

52:                                               ; preds = %5
  %53 = load ptr, ptr %14, align 8, !tbaa !91
  %54 = icmp ne ptr %53, null
  br i1 %54, label %56, label %55

55:                                               ; preds = %52, %5
  store i32 -1, ptr %16, align 4, !tbaa !10
  br label %112

56:                                               ; preds = %52
  store i32 0, ptr %17, align 4, !tbaa !10
  br label %57

57:                                               ; preds = %73, %56
  %58 = load i32, ptr %17, align 4, !tbaa !10
  %59 = zext i32 %58 to i64
  %60 = load i64, ptr %12, align 8, !tbaa !12
  %61 = icmp ult i64 %59, %60
  br i1 %61, label %62, label %76

62:                                               ; preds = %57
  %63 = load ptr, ptr %7, align 8, !tbaa !21
  %64 = load i32, ptr %17, align 4, !tbaa !10
  %65 = load i32, ptr %15, align 4, !tbaa !10
  %66 = mul i32 %64, %65
  %67 = zext i32 %66 to i64
  %68 = getelementptr inbounds nuw i8, ptr %63, i64 %67
  %69 = load ptr, ptr %13, align 8, !tbaa !21
  %70 = load i32, ptr %17, align 4, !tbaa !10
  %71 = zext i32 %70 to i64
  %72 = getelementptr inbounds nuw ptr, ptr %69, i64 %71
  store ptr %68, ptr %72, align 8, !tbaa !21
  br label %73

73:                                               ; preds = %62
  %74 = load i32, ptr %17, align 4, !tbaa !10
  %75 = add i32 %74, 1
  store i32 %75, ptr %17, align 4, !tbaa !10
  br label %57, !llvm.loop !92

76:                                               ; preds = %57
  %77 = load i64, ptr %12, align 8, !tbaa !12
  %78 = load ptr, ptr %13, align 8, !tbaa !21
  %79 = load ptr, ptr %14, align 8, !tbaa !91
  %80 = call i64 @hwloc_move_pages(i32 noundef 0, i64 noundef %77, ptr noundef %78, ptr noundef null, ptr noundef %79, i32 noundef 0)
  %81 = trunc i64 %80 to i32
  store i32 %81, ptr %16, align 4, !tbaa !10
  %82 = load i32, ptr %16, align 4, !tbaa !10
  %83 = icmp slt i32 %82, 0
  br i1 %83, label %84, label %85

84:                                               ; preds = %76
  br label %112

85:                                               ; preds = %76
  %86 = load ptr, ptr %9, align 8, !tbaa !8
  call void @hwloc_bitmap_zero(ptr noundef %86)
  store i32 0, ptr %17, align 4, !tbaa !10
  br label %87

87:                                               ; preds = %108, %85
  %88 = load i32, ptr %17, align 4, !tbaa !10
  %89 = zext i32 %88 to i64
  %90 = load i64, ptr %12, align 8, !tbaa !12
  %91 = icmp ult i64 %89, %90
  br i1 %91, label %92, label %111

92:                                               ; preds = %87
  %93 = load ptr, ptr %14, align 8, !tbaa !91
  %94 = load i32, ptr %17, align 4, !tbaa !10
  %95 = zext i32 %94 to i64
  %96 = getelementptr inbounds nuw i32, ptr %93, i64 %95
  %97 = load i32, ptr %96, align 4, !tbaa !10
  %98 = icmp sge i32 %97, 0
  br i1 %98, label %99, label %107

99:                                               ; preds = %92
  %100 = load ptr, ptr %9, align 8, !tbaa !8
  %101 = load ptr, ptr %14, align 8, !tbaa !91
  %102 = load i32, ptr %17, align 4, !tbaa !10
  %103 = zext i32 %102 to i64
  %104 = getelementptr inbounds nuw i32, ptr %101, i64 %103
  %105 = load i32, ptr %104, align 4, !tbaa !10
  %106 = call i32 @hwloc_bitmap_set(ptr noundef %100, i32 noundef %105)
  br label %107

107:                                              ; preds = %99, %92
  br label %108

108:                                              ; preds = %107
  %109 = load i32, ptr %17, align 4, !tbaa !10
  %110 = add i32 %109, 1
  store i32 %110, ptr %17, align 4, !tbaa !10
  br label %87, !llvm.loop !93

111:                                              ; preds = %87
  store i32 0, ptr %16, align 4, !tbaa !10
  br label %112

112:                                              ; preds = %111, %84, %55
  %113 = load ptr, ptr %13, align 8, !tbaa !21
  call void @free(ptr noundef %113) #14
  %114 = load ptr, ptr %14, align 8, !tbaa !91
  call void @free(ptr noundef %114) #14
  %115 = load i32, ptr %16, align 4, !tbaa !10
  call void @llvm.lifetime.end.p0(i64 4, ptr %17) #14
  call void @llvm.lifetime.end.p0(i64 4, ptr %16) #14
  call void @llvm.lifetime.end.p0(i64 4, ptr %15) #14
  call void @llvm.lifetime.end.p0(i64 8, ptr %14) #14
  call void @llvm.lifetime.end.p0(i64 8, ptr %13) #14
  call void @llvm.lifetime.end.p0(i64 8, ptr %12) #14
  call void @llvm.lifetime.end.p0(i64 4, ptr %11) #14
  ret i32 %115
}