; Function Attrs: nounwind uwtable
define internal range(i32 -2147483648, 1) i32 @hwloc_linux_get_area_memlocation(ptr readnone captures(none) %0, ptr noundef %1, i64 noundef %2, ptr noundef %3, i32 %4) #0 {
  %6 = tail call i64 @sysconf(i32 noundef 30) #27
  %7 = trunc i64 %6 to i32
  %8 = ptrtoint ptr %1 to i64
  %9 = add i64 %6, 4294967295
  %10 = and i64 %8, 4294967295
  %11 = and i64 %10, %9
  %12 = sub nsw i64 0, %11
  %13 = getelementptr inbounds i8, ptr %1, i64 %12
  %sext = shl i64 %6, 32
  %14 = ashr exact i64 %sext, 32
  %15 = add i64 %2, -1
  %16 = add i64 %15, %11
  %17 = add i64 %16, %14
  %18 = udiv i64 %17, %14
  %19 = shl i64 %18, 3
  %20 = tail call noalias ptr @malloc(i64 noundef %19) #28
  %21 = shl i64 %18, 2
  %22 = tail call noalias ptr @malloc(i64 noundef %21) #28
  %23 = icmp ne ptr %20, null
  %24 = icmp ne ptr %22, null
  %or.cond = and i1 %23, %24
  br i1 %or.cond, label %.preheader, label %.loopexit

.preheader:                                       ; preds = %5
  %.not = icmp ugt i64 %14, %17
  br i1 %.not, label %._crit_edge, label %.lr.ph

.lr.ph:                                           ; preds = %.preheader, %.lr.ph
  %25 = phi i64 [ %31, %.lr.ph ], [ 0, %.preheader ]
  %.045 = phi i32 [ %30, %.lr.ph ], [ 0, %.preheader ]
  %26 = mul i32 %.045, %7
  %27 = zext i32 %26 to i64
  %28 = getelementptr inbounds nuw i8, ptr %13, i64 %27
  %29 = getelementptr inbounds nuw ptr, ptr %20, i64 %25
  store ptr %28, ptr %29, align 8, !tbaa !90
  %30 = add i32 %.045, 1
  %31 = zext i32 %30 to i64
  %32 = icmp ugt i64 %18, %31
  br i1 %32, label %.lr.ph, label %._crit_edge, !llvm.loop !91

._crit_edge:                                      ; preds = %.lr.ph, %.preheader
  %33 = tail call i64 (i64, ...) @syscall(i64 noundef 279, i32 noundef 0, i64 noundef range(i64 0, 4294967296) %18, ptr noundef nonnull %20, ptr noundef null, ptr noundef nonnull %22, i32 noundef 0) #27
  %34 = trunc i64 %33 to i32
  %35 = icmp slt i32 %34, 0
  br i1 %35, label %.loopexit, label %36

36:                                               ; preds = %._crit_edge
  tail call void @hwloc_bitmap_zero(ptr noundef %3) #27
  br i1 %.not, label %.loopexit, label %.lr.ph48

.lr.ph48:                                         ; preds = %36, %43
  %37 = phi i64 [ %45, %43 ], [ 0, %36 ]
  %.146 = phi i32 [ %44, %43 ], [ 0, %36 ]
  %38 = getelementptr inbounds nuw i32, ptr %22, i64 %37
  %39 = load i32, ptr %38, align 4, !tbaa !3
  %40 = icmp sgt i32 %39, -1
  br i1 %40, label %41, label %43

41:                                               ; preds = %.lr.ph48
  %42 = tail call i32 @hwloc_bitmap_set(ptr noundef %3, i32 noundef %39) #27
  br label %43

43:                                               ; preds = %.lr.ph48, %41
  %44 = add i32 %.146, 1
  %45 = zext i32 %44 to i64
  %46 = icmp ugt i64 %18, %45
  br i1 %46, label %.lr.ph48, label %.loopexit, !llvm.loop !92

.loopexit:                                        ; preds = %43, %36, %5, %._crit_edge
  %.037 = phi i32 [ %34, %._crit_edge ], [ -1, %5 ], [ 0, %36 ], [ 0, %43 ]
  tail call void @free(ptr noundef %20) #27
  tail call void @free(ptr noundef %22) #27
  ret i32 %.037
}